target datalayout = "e-m:e-p270:32:32-p271:32:32-p272:64:64-i64:64-i128:128-f80:128-n8:16:32:64-S128"
target triple = "x86_64-pc-linux-gnu"

%struct._generic_SUNLinearSolver = type { ptr, ptr, ptr }
%struct._SUNLinearSolverContent_SPFGMR = type { i32, i32, i32, i32, i32, i32, double, i32, ptr, ptr, ptr, ptr, ptr, ptr, ptr, ptr, ptr, ptr, ptr, ptr, ptr, ptr, ptr, ptr }

; Function Attrs: nounwind uwtable
define i32 @SUNLinSolSetup_SPFGMR(ptr noundef %0, ptr noundef %1) #0 {
  %3 = alloca i32, align 4
  %4 = alloca ptr, align 8
  %5 = alloca ptr, align 8
  %6 = alloca ptr, align 8
  %7 = alloca i32, align 4
  %8 = alloca ptr, align 8
  %9 = alloca ptr, align 8
  %10 = alloca i32, align 4
  store ptr %0, ptr %4, align 8, !tbaa !12
  store ptr %1, ptr %5, align 8, !tbaa !68
  call void @llvm.lifetime.start.p0(i64 8, ptr %6) #6
  %11 = load ptr, ptr %4, align 8, !tbaa !12
  %12 = getelementptr inbounds nuw %struct._generic_SUNLinearSolver, ptr %11, i32 0, i32 2
  %13 = load ptr, ptr %12, align 8, !tbaa !66
  store ptr %13, ptr %6, align 8, !tbaa !10
  call void @llvm.lifetime.start.p0(i64 4, ptr %7) #6
  call void @llvm.lifetime.start.p0(i64 8, ptr %8) #6
  call void @llvm.lifetime.start.p0(i64 8, ptr %9) #6
  %14 = load ptr, ptr %4, align 8, !tbaa !12
  %15 = getelementptr inbounds nuw %struct._generic_SUNLinearSolver, ptr %14, i32 0, i32 0
  %16 = load ptr, ptr %15, align 8, !tbaa !35
  %17 = getelementptr inbounds nuw %struct._SUNLinearSolverContent_SPFGMR, ptr %16, i32 0, i32 10
  %18 = load ptr, ptr %17, align 8, !tbaa !55
  store ptr %18, ptr %8, align 8, !tbaa !65
  %19 = load ptr, ptr %4, align 8, !tbaa !12
  %20 = getelementptr inbounds nuw %struct._generic_SUNLinearSolver, ptr %19, i32 0, i32 0
  %21 = load ptr, ptr %20, align 8, !tbaa !35
  %22 = getelementptr inbounds nuw %struct._SUNLinearSolverContent_SPFGMR, ptr %21, i32 0, i32 12
  %23 = load ptr, ptr %22, align 8, !tbaa !57
  store ptr %23, ptr %9, align 8, !tbaa !65
  %24 = load ptr, ptr %8, align 8, !tbaa !65
  %25 = icmp ne ptr %24, null
  br i1 %25, label %26, label %46

26:                                               ; preds = %2
  %27 = load ptr, ptr %8, align 8, !tbaa !65
  %28 = load ptr, ptr %9, align 8, !tbaa !65
  %29 = call i32 %27(ptr noundef %28)
  store i32 %29, ptr %7, align 4, !tbaa !8
  %30 = load i32, ptr %7, align 4, !tbaa !8
  %31 = icmp ne i32 %30, 0
  br i1 %31, label %32, label %45

32:                                               ; preds = %26
  %33 = load i32, ptr %7, align 4, !tbaa !8
  %34 = icmp slt i32 %33, 0
  %35 = select i1 %34, i32 -806, i32 804
  %36 = load ptr, ptr %4, align 8, !tbaa !12
  %37 = getelementptr inbounds nuw %struct._generic_SUNLinearSolver, ptr %36, i32 0, i32 0
  %38 = load ptr, ptr %37, align 8, !tbaa !35
  %39 = getelementptr inbounds nuw %struct._SUNLinearSolverContent_SPFGMR, ptr %38, i32 0, i32 7
  store i32 %35, ptr %39, align 8, !tbaa !36
  %40 = load ptr, ptr %4, align 8, !tbaa !12
  %41 = getelementptr inbounds nuw %struct._generic_SUNLinearSolver, ptr %40, i32 0, i32 0
  %42 = load ptr, ptr %41, align 8, !tbaa !35
  %43 = getelementptr inbounds nuw %struct._SUNLinearSolverContent_SPFGMR, ptr %42, i32 0, i32 7
  %44 = load i32, ptr %43, align 8, !tbaa !36
  store i32 %44, ptr %3, align 4
  store i32 1, ptr %10, align 4
  br label %51

45:                                               ; preds = %26
  br label %46

46:                                               ; preds = %45, %2
  %47 = load ptr, ptr %4, align 8, !tbaa !12
  %48 = getelementptr inbounds nuw %struct._generic_SUNLinearSolver, ptr %47, i32 0, i32 0
  %49 = load ptr, ptr %48, align 8, !tbaa !35
  %50 = getelementptr inbounds nuw %struct._SUNLinearSolverContent_SPFGMR, ptr %49, i32 0, i32 7
  store i32 0, ptr %50, align 8, !tbaa !36
  store i32 0, ptr %3, align 4
  store i32 1, ptr %10, align 4
  br label %51

51:                                               ; preds = %46, %32
  call void @llvm.lifetime.end.p0(i64 8, ptr %9) #6
  call void @llvm.lifetime.end.p0(i64 8, ptr %8) #6
  call void @llvm.lifetime.end.p0(i64 4, ptr %7) #6
  call void @llvm.lifetime.end.p0(i64 8, ptr %6) #6
  %52 = load i32, ptr %3, align 4
  ret i32 %52
}